(dp0
I507520
(dp1
S'layer'
p2
I6
sS'title'
p3
VSignal-level-based dynamic power control for co-channel interference management
p4
sS'refs'
p5
(lp6
I1623141
aI1093019
aI120145
aI97507
aI195438
aI1623323
aI289411
aI188532
aI1096088
asS'control_index'
p7
(lp8
Vcellular radio
p9
aVcochannel interference
p10
aVerror compensation
p11
aVfading
p12
aVinterference suppression
p13
aVpower control
p14
aVrobust control
p15
aVtime-varying channels
p16
aVvariational techniques
p17
asS'punumber'
p18
S'3812'
p19
sS'ieee_terms'
p20
(lp21
VAlgorithm design and analysis
p22
aVAnalytical models
p23
aVBatteries
p24
aVControl systems
p25
aVDynamic range
p26
aVEnergy management
p27
aVInterchannel interference
p28
aVPower control
p29
aVPower engineering and energy
p30
aVPower measurement
p31
asS'authors'
p32
(lp33
S'J. F. Whitehead'
p34
asS'date'
p35
V18-20 May 1993
p36
ssI1095553
(dp37
g2
I11
sg3
VError Probability for Direct-Sequence Spread-Spectrum Multiple-Access Communications--Part I: Upper and Lower Bounds
p38
sg5
(lp39
I4244313
aI1093915
aI1094293
aI1093901
asg7
(lp40
Verror statistics
p41
aVinterference (signal)
p42
aVmulti-access systems
p43
aVradiocommunication
p44
asg18
S'26'
p45
sg20
(lp46
VAdditive white noise
p47
aVError analysis
p48
aVError probability
p49
aVGaussian approximation
p50
aVMultiple access interference
p51
aVSignal to noise ratio
p52
aVSoftware
p53
aVSpread spectrum communication
p54
aVTransmitters
p55
aVUpper bound
p56
asg32
(lp57
S'D. Sarwate'
p58
aS'W. Stark'
p59
aS'M. Pursley'
p60
asg35
VMay 1982
p61
ssI4091266
(dp62
g2
I11
sg3
VCompatibility of Spread-Spectrum Signals with Narrow-Band FM Receivers in VHF Mobile Networks
p63
sg5
(lp64
I1093907
aI1093903
aI1093736
asg7
(lp65
sg18
S'15'
p66
sg20
(lp67
VBandwidth
p68
aVCellular networks
p69
aVFrequency modulation
p70
aVInterference
p71
aVMobile antennas
p72
aVMobile communication
p73
aVNarrowband
p74
aVPower system modeling
p75
aVSpread spectrum communication
p76
aVTransmitters
p77
asg32
(lp78
S'T. J. Dvorak'
p79
asg35
VMay 1979
p80
ssI289411
(dp81
g2
I4
sg3
VOn the capacity of a cellular CDMA system
p82
sg5
(lp83
I1092554
aI54449
aI6772042
asg7
(lp84
Vcellular radio
p85
aVchannel capacity
p86
aVcode division multiple access
p87
aVdigital radio systems
p88
aVradiotelephony
p89
asg18
S'25'
p90
sg20
(lp91
VDigital modulation
p92
aVFrequency division multiaccess
p93
aVJacobian matrices
p94
aVMultiaccess communication
p95
aVSatellites
p96
aVSpread spectrum communication
p97
aVTelephony
p98
aVTime division multiple access
p99
aVTransmitters
p100
aVViterbi algorithm
p101
asg32
(lp102
S'L. A. Weaver'
p103
aS'C. E. Wheatley'
p104
aS'R. Padovani'
p105
aS'A. J. Viterbi'
p106
aS'K. S. Gilhousen'
p107
aS'I. M. Jacobs'
p108
asg35
VMay 1991
p109
ssI1146216
(dp110
g2
I10
sg3
VPersonal Computer Communications Via Ku-Band Small-Earth Stations
p111
sg5
(lp112
I1455439
aI1456317
aI1095553
asg7
(lp113
sg18
S'49'
p114
sg20
(lp115
VBandwidth
p116
aVData communication
p117
aVInterference
p118
aVMicrocomputers
p119
aVRadio frequency
p120
aVSatellite broadcasting
p121
aVSatellite communication
p122
aVSatellite ground stations
p123
aVTechnological innovation
p124
aVUncertainty
p125
asg32
(lp126
S'D. Lyon'
p127
asg35
VMay 1985
p128
ssI1097606
(dp129
g2
I9
sg3
VThe Sum of Log-Normal Probability Distributions in Scatter Transmission Systems
p130
sg5
(lp131
sg7
(lp132
sg18
S'4547465'
p133
sg20
(lp134
VConvolution
p135
aVEquations
p136
aVFluctuations
p137
aVGaussian distribution
p138
aVLog-normal distribution
p139
aVProbability distribution
p140
aVPropagation losses
p141
aVRandom variables
p142
aVScattering
p143
aVStatistical distributions
p144
asg32
(lp145
S'L. Fenton'
p146
asg35
VMarch 1960
p147
ssI1055169
(dp148
g2
I13
sg3
VFamilies of sequences with optimal Hamming-correlation properties
p149
sg5
(lp150
I1054048
aI1054106
asg7
(lp151
sg18
S'18'
p152
sg20
(lp153
VAutocorrelation
p154
aVBinary sequences
p155
aVGalois fields
p156
aVLength measurement
p157
aVLinear feedback shift registers
p158
aVPerformance evaluation
p159
aVPolynomials
p160
aVPosition measurement
p161
aVQ measurement
p162
asg32
(lp163
S'H. Greenberger'
p164
aS'A. Lempel'
p165
asg35
VJan 1974
p166
ssI1089161
(dp167
g2
I14
sg3
VAcquisition of Pseudonoise Signals by Sequential Estimation
p168
sg5
(lp169
I4337590
aI1088974
asg7
(lp170
sg18
S'4547467'
p171
sg20
(lp172
VCircuit testing
p173
aVClocks
p174
aVCounting circuits
p175
aVDelay estimation
p176
aVFilters
p177
aVFrequency modulation
p178
aVShift registers
p179
aVSignal generators
p180
aVSwitches
p181
aVTracking loops
p182
asg32
(lp183
S'R. Ward'
p184
asg35
VDecember 1965
p185
ssI260747
(dp186
g2
I2
sg3
VA simple distributed autonomous power control algorithm and its convergence
p187
sg5
(lp188
I4307345
aI120145
aI155977
aI507520
aI397403
aI276625
aI260747
asg7
(lp189
Vcellular radio
p190
aVpower control
p191
aVpower measurement
p192
aVradiofrequency interference
p193
aVtelecommunications control
p194
asg18
S'25'
p195
sg20
(lp196
VCentralized control
p197
aVControl systems
p198
aVConvergence
p199
aVDelay
p200
aVDispersion
p201
aVDistributed algorithms
p202
aVInterference
p203
aVPower control
p204
aVPower measurement
p205
aVWireless communication
p206
asg32
(lp207
S'G. J. Foschini'
p208
aS'Z. Miljanic'
p209
asg35
VNov 1993
p210
ssI1091714
(dp211
g2
I13
sg3
VPseudonoise Code Acquisition Using Majority Logic Decoding
p212
sg5
(lp213
I1089161
asg7
(lp214
sg18
S'26'
p215
sg20
(lp216
VDecoding
p217
aVEstimation theory
p218
aVFrequency synchronization
p219
aVInstruments
p220
aVLogic
p221
aVPerformance loss
p222
aVProbability
p223
aVSignal to noise ratio
p224
aVSpace vehicles
p225
aVStatistics
p226
asg32
(lp227
S'C. Kilgus'
p228
asg35
VJun 1973
p229
ssI5241361
(dp230
g2
I18
sg3
VInformation theory and inverse probability in telecommunication
p231
sg5
(lp232
sg7
(lp233
Vfluctuations
p234
aVindeterminancy
p235
aVprobability
p236
aVstatistical mechanics
p237
aVtelecommunication
p238
asg18
S'5241015'
p239
sg20
(lp240
sg32
(lp241
sg35
VMarch 1952
p242
ssI4307345
(dp243
g2
I5
sg3
VAssignment of Transmitter Powers by Linear Programming
p244
sg5
(lp245
sg7
(lp246
sg18
S'15'
p247
sg20
(lp248
VElectric variables control
p249
aVElectromagnetic compatibility
p250
aVElectromagnetic interference
p251
aVElectromagnetic radiation
p252
aVLinear programming
p253
aVMathematical model
p254
aVOperations research
p255
aVPower system modeling
p256
aVRadio transmitters
p257
aVTesting
p258
asg32
(lp259
S'F. Bock'
p260
aS'B. Ebstein'
p261
asg35
VJuly 1964
p262
ssI5425923
(dp263
g2
I1
sg3
VDistributed Power Control in Femtocell-Underlay Cellular Networks
p264
sg5
(lp265
I4623708
aI5165314
aI983324
aI260747
aI120145
aI414650
aI4720238
asg7
(lp266
Vcellular radio
p267
aVradiofrequency interference
p268
asg18
S'5425207'
p269
sg20
(lp270
VCosts
p271
aVFrequency
p272
aVInterference
p273
aVLand mobile radio cellular systems
p274
aVMacrocell networks
p275
aVMobile communication
p276
aVPower control
p277
aVQuality of service
p278
aVSignal to noise ratio
p279
aVWireless communication
p280
asg32
(lp281
S'J. Andrews'
p282
aS'Z. Shen'
p283
aS'A. Gatherer'
p284
aS'T. Muharemovic'
p285
aS'V. Chandrasekhar'
p286
asg35
VNov. 30 2009-Dec. 4 2009
p287
ssI1056532
(dp288
g2
I11
sg3
VMaximum likelihood combining for noncoherent and differentially coherent frequency-hopping multiple-access systems
p289
sg5
(lp290
I1093907
aI1091571
aI1622874
aI6768464
aI1093993
aI1094908
aI1088650
aI6768694
aI6768457
aI6768463
aI1094969
aI6772807
asg7
(lp291
sg18
S'18'
p292
sg20
(lp293
VBase stations
p294
aVBit error rate
p295
aVDetectors
p296
aVDifferential quadrature phase shift keying
p297
aVDiversity methods
p298
aVFading
p299
aVFrequency diversity
p300
aVLand mobile radio
p301
aVMaximum likelihood detection
p302
aVPerformance evaluation
p303
asg32
(lp304
S'On-Ching Yue'
p305
asg35
VJul 1982
p306
ssI1622425
(dp307
g2
I11
sg3
VA spread spectrum technique for high capacity mobile communications
p308
sg5
(lp309
sg7
(lp310
sg18
S'10796'
p311
sg20
(lp312
VBase stations
p313
aVDegradation
p314
aVEncoding
p315
aVFading
p316
aVInterference
p317
aVMobile communication
p318
aVPower control
p319
aVSpeech
p320
aVSpread spectrum communication
p321
aVTime frequency analysis
p322
asg32
(lp323
S'G. R. Cooper'
p324
aS'R. W. Nettleton'
p325
asg35
V16-18 March 1977
p326
ssI1054106
(dp327
g2
I14
sg3
VMaximal recursive sequences with 3-valued recursive cross-correlation functions (Corresp.)
p328
sg5
(lp329
I1054048
asg7
(lp330
sg18
S'18'
p331
sg20
(lp332
VAerospace electronics
p333
aVCopper
p334
aVDelay effects
p335
aVInformation theory
p336
aVJamming
p337
aVNarrowband
p338
aVNeural networks
p339
aVSignal analysis
p340
aVTime measurement
p341
aVUncertainty
p342
asg32
(lp343
S'R. Gold'
p344
asg35
VJan 1968
p345
ssI1623323
(dp346
g2
I7
sg3
VSimulation of power control and voice-channel selection in cellular systems
p347
sg5
(lp348
I6771936
aI1622511
aI5249517
asg7
(lp349
sg18
S'10804'
p350
sg20
(lp351
VHeuristic algorithms
p352
aVInterchannel interference
p353
aVMeasurement errors
p354
aVOperating systems
p355
aVPower control
p356
aVRayleigh channels
p357
aVScattering
p358
aVSystem testing
p359
aVSystems engineering and theory
p360
aVTest equipment
p361
asg32
(lp362
S'A. N. Rosenberg'
p363
asg35
V21-23 May 1985
p364
ssI40093
(dp365
g2
I6
sg3
VAnalysis of system performance of high-capacity mobile radio
p366
sg5
(lp367
I1095671
aI1095385
aI1622969
aI1097606
aI6772599
aI31127
asg7
(lp368
Vcellular radio
p369
aVfading
p370
aVinterference (signal)
p371
asg18
S'832'
p372
sg20
(lp373
VDensity functional theory
p374
aVFading
p375
aVInterchannel interference
p376
aVLand mobile radio
p377
aVOptimization methods
p378
aVPerformance analysis
p379
aVProbability distribution
p380
aVShadow mapping
p381
aVStochastic processes
p382
aVSystem performance
p383
asg32
(lp384
S'R. Prasad'
p385
aS'A. Kegel'
p386
asg35
V1-3 May 1989
p387
ssI1007390
(dp388
g2
I2
sg3
VDistributed multiuser power control for digital subscriber lines
p389
sg5
(lp390
I260747
aI414651
aI414650
aI683739
aI406632
aI832210
aI965370
aI1056307
aI1055812
aI1056416
aI910609
aI668743
asg7
(lp391
Vdigital subscriber lines
p392
aVdistributed control
p393
aVgame theory
p394
aViterative methods
p395
aVpower control
p396
aVspectral analysis
p397
aVtelecommunication control
p398
aVtransfer functions
p399
asg18
S'49'
p400
sg20
(lp401
VCentralized control
p402
aVCrosstalk
p403
aVDSL
p404
aVFrequency
p405
aVInterference channels
p406
aVIterative algorithms
p407
aVModems
p408
aVNash equilibrium
p409
aVPower control
p410
aVTelephony
p411
asg32
(lp412
S'Wei Yu'
p413
aS'G. Ginis'
p414
aS'J. M. Cioffi'
p415
asg35
VJun 2002
p416
ssI4065285
(dp417
g2
I17
sg3
VAn Error-Correcting Encoder and Decoder of High Efficiency
p418
sg5
(lp419
I6773024
aI6772729
aI1057465
asg7
(lp420
sg18
S'10933'
p421
sg20
(lp422
VAdders
p423
aVBinary sequences
p424
aVCode standards
p425
aVCommunication systems
p426
aVEncoding
p427
aVError correction codes
p428
aVIterative decoding
p429
aVLaboratories
p430
aVShift registers
p431
aVStorage area networks
p432
asg32
(lp433
S'J. H. Green'
p434
aS'R. L. San Soucie'
p435
asg35
VOct. 1958
p436
ssI6771361
(dp437
g2
I8
sg3
VSome properties of power sums of truncated normal random variables
p438
sg5
(lp439
sg7
(lp440
sg18
S'6731005'
p441
sg20
(lp442
sg32
(lp443
S'I. Narsell'
p444
asg35
VNov. 1967
p445
ssI1057571
(dp446
g2
I16
sg3
VAn introduction to matched filters
p447
sg5
(lp448
I1701316
aI1086506
aI1057450
aI5240941
aI4055555
aI1086622
aI1057460
aI4065414
aI1056827
aI4065360
aI1055140
aI1697831
aI1056805
aI1057386
aI4065535
aI1086414
aI5241361
aI4050808
asg7
(lp449
sg18
S'4547527'
p450
sg20
(lp451
VBibliographies
p452
aVDensity functional theory
p453
aVEstimation theory
p454
aVFiltering theory
p455
aVFourier transforms
p456
aVInformation theory
p457
aVMatched filters
p458
aVMilling machines
p459
aVNonlinear filters
p460
aVProbability density function
p461
aVSignal synthesis
p462
aVTesting
p463
aVTransfer functions
p464
asg32
(lp465
S'G. Turin'
p466
asg35
VJune 1960
p467
ssI7037476
(dp468
g2
I0
sg3
VPower control and rate allocation for outage balancing in femtocell networks
p469
sg5
(lp470
I5425923
aI5054750
aI5701695
aI6157483
aI5319744
aI5935080
aI975444
aI5165179
aI6138858
asg7
(lp471
Vconvex programming
p472
aVelectronic messaging
p473
aVfemtocellular radio
p474
aVgeometric programming
p475
aViterative methods
p476
aVstatistical distributions
p477
aVtelecommunication network reliability
p478
aVwireless channels
p479
asg18
S'7008954'
p480
sg20
(lp481
VInterference
p482
aVOptimization
p483
aVPower control
p484
aVProbability
p485
aVResource management
p486
aVSignal to noise ratio
p487
aVWireless communication
p488
asg32
(lp489
S'H. Wang'
p490
aS'Z. Ding'
p491
asg35
V8-12 Dec. 2014
p492
ssI1056805
(dp493
g2
I17
sg3
VA radar detection philosophy
p494
sg5
(lp495
I1057460
aI6767541
aI4055555
asg7
(lp496
sg18
S'4547527'
p497
sg20
(lp498
VContracts
p499
aVDesign engineering
p500
aVEnergy resolution
p501
aVEquations
p502
aVLaboratories
p503
aVParameter estimation
p504
aVRadar applications
p505
aVRadar countermeasures
p506
aVRadar detection
p507
aVRadar measurements
p508
aVRadar theory
p509
aVSignal analysis
p510
aVSignal resolution
p511
aVUncertainty
p512
aVUpper bound
p513
asg32
(lp514
S'W. Siebert'
p515
asg35
VSeptember 1956
p516
ssI1623079
(dp517
g2
I10
sg3
VSpread spectrum mobile radio, 1977-1982
p518
sg5
(lp519
I1622425
aI1095496
aI1056532
aI6768464
aI1446775
aI1055219
aI6770504
aI1095535
aI1090714
aI1141042
aI6768463
aI1094969
aI1622874
aI1622875
aI1091571
aI1094908
aI6773811
aI6772574
aI4091266
asg7
(lp520
sg18
S'25'
p521
sg20
(lp522
VChannel spacing
p523
aVDifferential quadrature phase shift keying
p524
aVError correction
p525
aVError correction codes
p526
aVFrequency modulation
p527
aVFrequency shift keying
p528
aVLand mobile radio
p529
aVModulation coding
p530
aVPhase modulation
p531
aVSpread spectrum communication
p532
asg32
(lp533
S'On-Ching Yue'
p534
asg35
VFeb 1983
p535
ssI1086506
(dp536
g2
I16
sg3
VThe Theory of Autonomous Linear Sequential Networks
p537
sg5
(lp538
I1056805
aI4065360
aI1056806
aI4065285
asg7
(lp539
sg18
S'8148'
p540
sg20
(lp541
VAdders
p542
aVCommunication systems
p543
aVComputer errors
p544
aVDigital control
p545
aVError correction
p546
aVFlip-flops
p547
aVIntegrated circuit interconnections
p548
aVNetwork synthesis
p549
aVPolynomials
p550
aVRadar
p551
asg32
(lp552
S'B. Elspas'
p553
asg35
VMar 1959
p554
ssI6157483
(dp555
g2
I1
sg3
VClustering strategy based on graph method and power control for frequency resource management in femtocell and macrocell overlaid system
p556
sg5
(lp557
I4623708
aI606032
aI5288507
aI5502298
aI4720238
aI5165314
aI4737449
aI5487658
aI4770201
aI276399
aI337636
aI515865
aI683739
aI120145
aI1543924
asg7
(lp558
VOFDM modulation
p559
aVfemtocellular radio
p560
aVfrequency allocation
p561
aVgraph theory
p562
aVpattern clustering
p563
aVpower control
p564
aVprobability
p565
aVradio links
p566
aVradiofrequency interference
p567
aVtelecommunication control
p568
aVtelecommunication network planning
p569
asg18
S'5449605'
p570
sg20
(lp571
VBandwidth
p572
aVDownlink
p573
aVFrequency control
p574
aVFrequency conversion
p575
aVInterference
p576
aVMacrocell networks
p577
aVOFDM
p578
asg32
(lp579
S'H. Tang'
p580
aS'P. Zhang'
p581
aS'S. Ci'
p582
aS'H. Li'
p583
aS'X. Xu'
p584
aS'X. Tao'
p585
aS'D. Hu'
p586
asg35
VDec. 2011
p587
ssI6771244
(dp588
g2
I10
sg3
VEngineering aspects of TASI
p589
sg5
(lp590
sg7
(lp591
sg18
S'6731005'
p592
sg20
(lp593
sg32
(lp594
S'K. Bullington'
p595
aS'J. M. Fraser'
p596
asg35
VMarch 1959
p597
ssI5008813
(dp598
g2
I16
sg3
VA Skin Tracking Radar Experiment Involving the COURIER Satellite
p599
sg5
(lp600
I5008747
asg7
(lp601
sg18
S'5008636'
p602
sg20
(lp603
VExtraterrestrial measurements
p604
aVLaboratories
p605
aVPropulsion
p606
aVRadar antennas
p607
aVRadar tracking
p608
aVSatellites
p609
aVSkin
p610
aVSpace vehicles
p611
aVSpaceborne radar
p612
aVTransmitting antennas
p613
asg32
(lp614
S'M. Easterling'
p615
asg35
VJune 1962
p616
ssI54449
(dp617
g2
I9
sg3
VIncreased capacity using CDMA for mobile satellite communication
p618
sg5
(lp619
I1092554
aI6771244
aI1093912
asg7
(lp620
Vchannel capacity
p621
aVcode division multiple access
p622
aVdigital radio systems
p623
aVerror statistics
p624
aVmobile radio systems
p625
aVsatellite relay systems
p626
aVspread spectrum communication
p627
asg18
S'49'
p628
sg20
(lp629
VComputer simulation
p630
aVFrequency division multiaccess
p631
aVLaboratories
p632
aVModems
p633
aVMultiaccess communication
p634
aVPerformance analysis
p635
aVSatellite communication
p636
aVSpread spectrum communication
p637
aVTesting
p638
aVVirtual prototyping
p639
asg32
(lp640
S'K. S. Gilhousen'
p641
aS'R. Padovani'
p642
aS'I. M. Jacobs'
p643
aS'L. A. Weaver'
p644
asg35
VMay 1990
p645
ssI1091571
(dp646
g2
I12
sg3
V910 MHz Urban Mobile Radio Propagation: Multipath Characteristics in New York City
p647
sg5
(lp648
I1140277
aI1701213
aI1622095
aI1621927
aI1451004
asg7
(lp649
sg18
S'26'
p650
sg20
(lp651
VAntennas and propagation
p652
aVCities and towns
p653
aVDelay effects
p654
aVLand mobile radio
p655
aVPulse measurements
p656
aVRayleigh scattering
p657
aVStatistics
p658
aVTime measurement
p659
aVTransmitting antennas
p660
aVVehicles
p661
asg32
(lp662
S'D. Cox'
p663
asg35
VNov 1973
p664
ssI1057460
(dp665
g2
I18
sg3
VThe theory of signal detectability
p666
sg5
(lp667
I1697831
aI5241361
aI5241246
aI6771565
asg7
(lp668
sg18
S'4547596'
p669
sg20
(lp670
VCharacter generation
p671
aVFrequency
p672
aVGaussian noise
p673
aVNoise level
p674
aVPower generation
p675
aVSignal detection
p676
aVSignal generators
p677
aVSignal to noise ratio
p678
aVStatistical analysis
p679
aVUncertainty
p680
aVVoltage
p681
asg32
(lp682
S'T. Birdsall'
p683
aS'W. Peterson'
p684
aS'W. Fox'
p685
asg35
VSeptember 1954
p686
ssI5054750
(dp687
g2
I1
sg3
VDownlink power control in co-channel macrocell femtocell overlay
p688
sg5
(lp689
I4623708
aI5200991
aI414651
aI260747
aI1019345
aI4295967
asg7
(lp690
Vcellular radio
p691
aVchannel capacity
p692
aVcochannel interference
p693
aVinterference suppression
p694
aVpower control
p695
aVquality of service
p696
aVradiofrequency interference
p697
aVspread spectrum communication
p698
aVtelecommunication congestion control
p699
aVwireless channels
p700
asg18
S'4976858'
p701
sg20
(lp702
VBase stations
p703
aVDownlink
p704
aVEnergy management
p705
aVInterchannel interference
p706
aVInternet
p707
aVMacrocell networks
p708
aVPower control
p709
aVQuality of service
p710
aVSignal to noise ratio
p711
aVTelecommunication traffic
p712
asg32
(lp713
S'X. Li'
p714
aS'L. Qian'
p715
aS'D. Kataria'
p716
asg35
V18-20 March 2009
p717
ssI4337590
(dp718
g2
I15
sg3
VDelay-Lock Tracking of Binary Signals
p719
sg5
(lp720
I4066507
aI5008792
aI1086506
aI1055125
aI1057444
aI5008813
asg7
(lp721
sg18
S'4335581'
p722
sg20
(lp723
VAdditive noise
p724
aVAutocorrelation
p725
aVDelay estimation
p726
aVDelay systems
p727
aVFeedback loop
p728
aVNoise level
p729
aVPropagation delay
p730
aVRadar tracking
p731
aVRadio frequency
p732
aVTarget tracking
p733
asg32
(lp734
S'J. J. Spilker'
p735
asg35
VMarch 1963
p736
ssI155977
(dp737
g2
I5
sg3
VDistributed cochannel interference control in cellular radio systems
p738
sg5
(lp739
I1623141
aI571458
aI120145
aI40093
asg7
(lp740
Vcellular radio
p741
aVfading
p742
aVinterference (signal)
p743
aVpower control
p744
aVtelecommunications control
p745
asg18
S'25'
p746
sg20
(lp747
VDistributed control
p748
aVFading
p749
aVInterchannel interference
p750
aVLand mobile radio cellular systems
p751
aVNoise measurement
p752
aVNoise robustness
p753
aVParticle measurements
p754
aVPower control
p755
aVRadio control
p756
aVVehicles
p757
asg32
(lp758
S'J. Zander'
p759
asg35
VAug 1992
p760
ssI1697831
(dp761
g2
I19
sg3
VCommunication in the Presence of Noise
p762
sg5
(lp763
I5060996
aI6769394
aI5055024
aI6773356
aI1697556
aI6773024
asg7
(lp764
sg18
S'10933'
p765
sg20
(lp766
VBandwidth
p767
aVCircuits
p768
aVCommunication systems
p769
aVElectron tubes
p770
aVFrequency measurement
p771
aVGain measurement
p772
aVKlystrons
p773
aVShape
p774
aVTelephony
p775
aVVoltage
p776
asg32
(lp777
S'C. E. Shannon'
p778
asg35
VJan. 1949
p779
ssI1094969
(dp780
g2
I12
sg3
VComputer Simulation Results on Frequency Hopped MFSK Mobile Radio--Noiseless Case
p781
sg5
(lp782
I6768464
aI6768463
asg7
(lp783
sg18
S'26'
p784
sg20
(lp785
VApplication software
p786
aVBandwidth
p787
aVChirp
p788
aVComputer simulation
p789
aVFrequency shift keying
p790
aVGalois fields
p791
aVMobile communication
p792
aVMobile computing
p793
aVSpread spectrum communication
p794
aVTelephony
p795
asg32
(lp796
S'B. Haskell'
p797
asg35
VFeb 1981
p798
ssI414650
(dp799
g2
I3
sg3
VAn algorithm for combined cell-site selection and power control to maximize cellular spread spectrum capacity
p800
sg5
(lp801
I260747
aI289411
aI486617
aI24606
aI74909
aI1623141
aI406632
aI414651
aI120145
asg7
(lp802
Vcellular radio
p803
aVchannel capacity
p804
aVconvergence of numerical methods
p805
aVdiversity reception
p806
aVinterference suppression
p807
aVland mobile radio
p808
aVpower control
p809
aVradiofrequency interference
p810
aVspread spectrum communication
p811
aVtelecommunication congestion control
p812
aVtelecommunication traffic
p813
asg18
S'49'
p814
sg20
(lp815
VBase stations
p816
aVCommunication switching
p817
aVMobile communication
p818
aVPower control
p819
aVSpread spectrum communication
p820
aVSwitches
p821
aVTelecommunication traffic
p822
aVTraffic control
p823
aVTransmitters
p824
aVWireless communication
p825
asg32
(lp826
S'S. V. Hanly'
p827
asg35
VSep 1995
p828
ssI414651
(dp829
g2
I2
sg3
VA framework for uplink power control in cellular radio systems
p830
sg5
(lp831
I195438
aI120145
aI1623141
aI289411
aI232298
aI260766
aI260747
aI414650
aI406632
aI329346
aI368897
aI276399
aI345205
asg7
(lp832
Vcellular radio
p833
aVconvergence of numerical methods
p834
aVdiversity reception
p835
aViterative methods
p836
aVland mobile radio
p837
aVpower control
p838
aVradiofrequency interference
p839
aVtelecommunication control
p840
asg18
S'49'
p841
sg20
(lp842
VAlgorithm design and analysis
p843
aVBase stations
p844
aVControl systems
p845
aVInterference constraints
p846
aVIterative algorithms
p847
aVLand mobile radio cellular systems
p848
aVPower control
p849
aVPower system modeling
p850
aVRadio transmitters
p851
aVWireless communication
p852
asg32
(lp853
S'R. D. Yates'
p854
asg35
VSep 1995
p855
ssI1669877
(dp856
g2
I19
sg3
VExperiments and Observations concerning the Ionized Regions of the Atmosphere
p857
sg5
(lp858
I1669656
asg7
(lp859
sg18
S'5547934'
p860
sg20
(lp861
VAbsorption
p862
aVAtmosphere
p863
aVAtmospheric measurements
p864
aVElectromagnetic refraction
p865
aVElectromagnetic scattering
p866
aVIonization
p867
aVReflection
p868
aVSun
p869
aVTime measurement
p870
aVWavelength measurement
p871
asg32
(lp872
S'R. A. Heising'
p873
asg35
VJan. 1928
p874
ssI5701695
(dp875
g2
I1
sg3
VSpectrum Management in Multiuser Cognitive Wireless Networks: Optimality and Algorithm
p876
sg5
(lp877
I4275017
aI4155367
aI1391031
aI4205091
aI4067860
aI1214071
aI1007390
aI4069138
aI5411806
aI1632106
aI4547456
aI1374963
aI5062050
aI5205907
aI260747
asg7
(lp878
VGaussian channels
p879
aVcognitive radio
p880
aVcomputational complexity
p881
aVmatrix algebra
p882
aVoptimisation
p883
aVtelecommunication control
p884
aVtelecommunication network management
p885
asg18
S'49'
p886
sg20
(lp887
sg32
(lp888
S'S. H. Low'
p889
aS'C. W. Tan'
p890
aS'S. Friedland'
p891
asg35
VFebruary 2011
p892
ssI5319744
(dp893
g2
I1
sg3
VDynamic Allocation of Subcarriers and Transmit Powers in an OFDMA Cellular Network
p894
sg5
(lp895
I289411
aI414651
aI1244793
aI1545851
aI1262622
aI4453890
aI4155367
aI1007390
aI1494677
aI1374963
aI4275017
aI4024693
aI1658226
aI1632106
aI4276960
aI1717619
aI1516113
aI1589642
aI1427697
aI4153965
aI4509714
aI1624258
asg7
(lp896
VOFDM modulation
p897
aVcellular radio
p898
aVchannel allocation
p899
aVfading channels
p900
aVfrequency division multiple access
p901
aVfrequency hop communication
p902
aVminimax techniques
p903
aVmultiuser channels
p904
aVprobability
p905
aVradio networks
p906
aVradio spectrum management
p907
asg18
S'18'
p908
sg20
(lp909
VAustralia
p910
aVBandwidth
p911
aVBase stations
p912
aVDownlink
p913
aVFading
p914
aVFrequency conversion
p915
aVLand mobile radio cellular systems
p916
aVPower control
p917
aVProbability
p918
aVResource management
p919
asg32
(lp920
S'T. Thanabalasingham'
p921
aS'S. V. Hanly'
p922
aS'L. L. H. Andrew'
p923
asg35
VDec. 2009
p924
ssI1054048
(dp925
g2
I13
sg3
VOptimal binary sequences for spread spectrum multiplexing (Corresp.)
p926
sg5
(lp927
sg7
(lp928
sg18
S'18'
p929
sg20
(lp930
sg32
(lp931
S'R. Gold'
p932
asg35
VOctober 1967
p933
ssI1090699
(dp934
g2
I13
sg3
VEditorial
p935
sg5
(lp936
sg7
(lp937
sg18
S'4547467'
p938
sg20
(lp939
sg32
(lp940
S'J. Stiffler'
p941
asg35
VOctober 1971
p942
ssI4275017
(dp943
g2
I2
sg3
VPower Control By Geometric Programming
p944
sg5
(lp945
I683739
aI1374963
aI260747
aI1019292
aI975444
aI4146910
aI4025089
aI4024693
aI957304
aI935162
aI1578413
aI1661442
aI414651
asg7
(lp946
Vcode division multiple access
p947
aVconvex programming
p948
aVdistributed algorithms
p949
aVgeometric programming
p950
aVpower control
p951
aVpower engineering computing
p952
aVpower system control
p953
asg18
S'7693'
p954
sg20
(lp955
VAd hoc networks
p956
aVAdmission control
p957
aVCellular networks
p958
aVConstraint optimization
p959
aVDistributed algorithms
p960
aVInterference constraints
p961
aVPower control
p962
aVQuality of service
p963
aVRobustness
p964
aVThroughput
p965
asg32
(lp966
S'D. Julian'
p967
aS'C. W. Tan'
p968
aS'M. Chiang'
p969
aS'D. O&#191;neill'
p970
aS'D. P. Palomar'
p971
asg35
VJuly 2007
p972
ssI1092554
(dp973
g2
I9
sg3
VWhen not to spread spectrum - A sequel
p974
sg5
(lp975
I1623079
aI1146083
aI1146216
asg7
(lp976
sg18
S'35'
p977
sg20
(lp978
VConvolutional codes
p979
aVDecoding
p980
aVDownlink
p981
aVInformation analysis
p982
aVInterference
p983
aVNoise figure
p984
aVNonlinear equations
p985
aVSatellite ground stations
p986
aVSignal to noise ratio
p987
aVViterbi algorithm
p988
asg32
(lp989
S'A. Viterbi'
p990
asg35
VApril 1985
p991
ssI4066507
(dp992
g2
I16
sg3
VThe Delay-Lock Discriminator-An Optimum Tracking Device
p993
sg5
(lp994
I4066018
aI4052171
aI4065741
aI1057574
aI1055125
aI1055130
asg7
(lp995
sg18
S'10933'
p996
sg20
(lp997
VFeedback
p998
aVFrequency modulation
p999
aVInterference
p1000
aVInterferometry
p1001
aVLaboratories
p1002
aVPosition measurement
p1003
aVPropagation delay
p1004
aVPulse compression methods
p1005
aVRadar tracking
p1006
aVTarget tracking
p1007
asg32
(lp1008
S'J. J. Spilker'
p1009
aS'D. T. Magill'
p1010
asg35
VSept. 1961
p1011
ssI1088974
(dp1012
g2
I15
sg3
VSerial Synchronization of Pseudonoise Systems
p1013
sg5
(lp1014
I1057571
asg7
(lp1015
sg18
S'4547467'
p1016
sg20
(lp1017
VAutocorrelation
p1018
aVBand pass filters
p1019
aVData mining
p1020
aVDegradation
p1021
aVDetectors
p1022
aVFrequency synchronization
p1023
aVInterference
p1024
aVNoise level
p1025
aVSignal to noise ratio
p1026
aVTransmitters
p1027
asg32
(lp1028
S'G. Sage'
p1029
asg35
VDecember 1964
p1030
ssI6768463
(dp1031
g2
I12
sg3
VAddress assignment for a time-frequency-coded, spread-spectrum system
p1032
sg5
(lp1033
sg7
(lp1034
sg18
S'6731005'
p1035
sg20
(lp1036
sg32
(lp1037
S'G. Einarsson'
p1038
asg35
VSept. 1980
p1039
ssI6768464
(dp1040
g2
I12
sg3
VFrequency-hopped multilevel FSK for mobile Radio
p1041
sg5
(lp1042
sg7
(lp1043
sg18
S'6731005'
p1044
sg20
(lp1045
sg32
(lp1046
S'P. S. Henry'
p1047
aS'V. K. Prabhu'
p1048
aS'D. J. Goodman'
p1049
asg35
VSept. 1980
p1050
ssI120145
(dp1051
g2
I2
sg3
VPerformance of optimum transmitter power control in cellular radio systems
p1052
sg5
(lp1053
I4307345
aI1623141
aI1623323
aI195438
aI40093
aI289422
aI40102
asg7
(lp1054
Vcellular radio
p1055
aVinterference suppression
p1056
aVpower control
p1057
aVtelecommunications control
p1058
asg18
S'25'
p1059
sg20
(lp1060
VChannel allocation
p1061
aVCommunication system control
p1062
aVHeuristic algorithms
p1063
aVInterchannel interference
p1064
aVInterference suppression
p1065
aVLand mobile radio cellular systems
p1066
aVPower control
p1067
aVPower system management
p1068
aVRadio transmitters
p1069
aVUpper bound
p1070
asg32
(lp1071
S'J. Zander'
p1072
asg35
VFeb 1992
p1073
ssI1057444
(dp1074
g2
I16
sg3
VA useful theorem for nonlinear devices having Gaussian inputs
p1075
sg5
(lp1076
I1055122
aI1057390
aI6771565
aI1057415
asg7
(lp1077
sg18
S'4547527'
p1078
sg20
(lp1079
VAutocorrelation
p1080
aVDetectors
p1081
aVFrequency
p1082
aVGaussian distribution
p1083
aVGaussian noise
p1084
aVGaussian processes
p1085
aVInformation theory
p1086
aVRandom processes
p1087
aVRandom variables
p1088
aVStatistics
p1089
asg32
(lp1090
S'R. Price'
p1091
asg35
VJune 1958
p1092
ssI975444
(dp1093
g2
I1
sg3
VOptimal power control in interference-limited fading wireless channels with outage-probability specifications
p1094
sg5
(lp1095
I312802
aI588096
aI406632
aI414651
aI683739
aI515865
aI276398
aI1623141
aI1623141
aI260747
aI406608
aI524195
aI734695
aI120145
aI82819
aI1096088
aI126703
aI142770
aI473953
aI524197
aI155977
aI742887
asg7
(lp1096
VRayleigh channels
p1097
aVeigenvalues and eigenfunctions
p1098
aVgeometric programming
p1099
aVpower control
p1100
aVprobability
p1101
aVradio networks
p1102
aVradio transmitters
p1103
aVradiofrequency interference
p1104
aVtelecommunication control
p1105
asg18
S'7693'
p1106
sg20
(lp1107
VEigenvalues and eigenfunctions
p1108
aVFading
p1109
aVInterference constraints
p1110
aVIterative methods
p1111
aVOptimization methods
p1112
aVPower control
p1113
aVProbability
p1114
aVRayleigh channels
p1115
aVTransmitters
p1116
aVWireless networks
p1117
asg32
(lp1118
S'S. Boyd'
p1119
aS'S. Kandukuri'
p1120
asg35
VJan 2002
p1121
ssI6771927
(dp1122
g2
I9
sg3
VAdvanced mobile phone service: Introduction, background, and objectives
p1123
sg5
(lp1124
sg7
(lp1125
sg18
S'6731005'
p1126
sg20
(lp1127
sg32
(lp1128
S'W. R. Young'
p1129
asg35
VJan. 1979
p1130
ssI1095385
(dp1131
g2
I7
sg3
VCochannel Interference Considerations in Frequency Reuse Small-Coverage-Area Radio Systems
p1132
sg5
(lp1133
I6771927
aI6771361
aI1097606
asg7
(lp1134
Vmobile radio systems
p1135
aVradiofrequency interference
p1136
asg18
S'26'
p1137
sg20
(lp1138
VBase stations
p1139
aVCultural differences
p1140
aVFluctuations
p1141
aVInformation geometry
p1142
aVInterchannel interference
p1143
aVLand mobile radio
p1144
aVLarge-scale systems
p1145
aVRadio frequency
p1146
aVUncertainty
p1147
asg32
(lp1148
S'D. Cox'
p1149
asg35
VJanuary 1982
p1150
ssI683739
(dp1151
g2
I3
sg3
VToward power-sensitive network architectures in wireless communications: concepts, issues, and design aspects
p1152
sg5
(lp1153
I1457973
aI35806
aI1457969
aI1457979
aI1457977
aI1094909
aI1453
aI237882
aI13030
aI212277
aI108264
aI266055
aI1096405
aI1095921
aI21215
aI1095924
aI580232
aI282605
aI1096436
aI56383
aI1096061
aI392962
aI120145
aI155977
aI232298
aI345199
aI1623141
aI276398
aI195438
aI289411
aI1623141
aI345207
aI260766
aI345205
aI260747
aI406632
aI414651
aI476403
aI580424
aI587678
aI383072
aI368926
aI231888
aI329346
aI481835
aI515865
aI500374
aI493310
asg7
(lp1154
Vland mobile radio
p1155
aVpersonal communication networks
p1156
aVpower control
p1157
aVradio networks
p1158
aVradio transmitters
p1159
aVradiofrequency interference
p1160
aVtelecommunication control
p1161
asg18
S'98'
p1162
sg20
(lp1163
VAdmission control
p1164
aVBatteries
p1165
aVCommunication switching
p1166
aVCommunication system control
p1167
aVEnergy consumption
p1168
aVInterference
p1169
aVPower control
p1170
aVTransmitters
p1171
aVVehicles
p1172
aVWireless networks
p1173
asg32
(lp1174
S'N. Bambos'
p1175
asg35
VJun 1998
p1176
ssI1701213
(dp1177
g2
I14
sg3
VEchoes in Transmission at 450 Megacycles from Land-to-Car Radio Units
p1178
sg5
(lp1179
sg7
(lp1180
sg18
S'10933'
p1181
sg20
(lp1182
VCities and towns
p1183
aVDelay
p1184
aVFrequency
p1185
aVPulse measurements
p1186
aVSenior members
p1187
aVStatistical analysis
p1188
aVTelephony
p1189
aVTesting
p1190
aVVisualization
p1191
aVWideband
p1192
asg32
(lp1193
S'W. R. Young'
p1194
aS'L. Y. Lacy'
p1195
asg35
VMarch 1950
p1196
ssI1701471
(dp1197
g2
I18
sg3
VPerformance of Diversity Receiving Systems
p1198
sg5
(lp1199
I1701470
asg7
(lp1200
sg18
S'10933'
p1201
sg20
(lp1202
VAntenna arrays
p1203
aVDiversity methods
p1204
aVDiversity reception
p1205
aVFrequency diversity
p1206
aVLaboratories
p1207
aVPolarization
p1208
aVSenior members
p1209
aVSignal processing
p1210
aVStatistical analysis
p1211
aVTransmission line antennas
p1212
asg32
(lp1213
S'A. H. Ross'
p1214
aS'S. H. Van Wambeck'
p1215
asg35
VMarch 1951
p1216
ssI6771936
(dp1217
g2
I8
sg3
VAdvanced mobile phone service: The cellular test bed
p1218
sg5
(lp1219
sg7
(lp1220
sg18
S'6731005'
p1221
sg20
(lp1222
sg32
(lp1223
S'G. C. D. Piazza'
p1224
aS'G. I. Zysman'
p1225
aS'A. Plitkins'
p1226
asg35
VJan. 1979
p1227
ssI4065360
(dp1228
g2
I17
sg3
VA Communication Technique for Multipath Channels
p1229
sg5
(lp1230
I1670636
aI1670477
aI1696927
aI4051948
aI1701471
aI1095323
aI4056568
aI5299694
aI1701566
aI1057387
aI4055555
aI1055130
aI1057460
aI5241361
aI1055140
aI1057386
aI1701239
aI5241026
aI1056827
aI5241272
aI1686435
asg7
(lp1231
sg18
S'10933'
p1232
sg20
(lp1233
VAdditive noise
p1234
aVCommunication systems
p1235
aVDelay
p1236
aVIonosphere
p1237
aVMultipath channels
p1238
aVPrototypes
p1239
aVRAKE receivers
p1240
aVSignal processing
p1241
aVTime measurement
p1242
aVWideband
p1243
asg32
(lp1244
S'P. E. Green'
p1245
aS'R. Price'
p1246
asg35
VMarch 1958
p1247
ssI1146083
(dp1248
g2
I10
sg3
VThroughput Analysis for Code Division Multiple Accessing of the Spread Spectrum Channel
p1249
sg5
(lp1250
I4065633
aI1054048
aI1095533
aI1623079
asg7
(lp1251
sg18
S'49'
p1252
sg20
(lp1253
VBandwidth
p1254
aVConvolutional codes
p1255
aVDecoding
p1256
aVError analysis
p1257
aVError correction codes
p1258
aVInterference
p1259
aVSpread spectrum communication
p1260
aVThroughput
p1261
aVTransmitters
p1262
aVViterbi algorithm
p1263
asg32
(lp1264
S'J. Hui'
p1265
asg35
VJul 1984
p1266
ssI1623141
(dp1267
g2
I4
sg3
VPower control for a spread spectrum cellular mobile radio system
p1268
sg5
(lp1269
I6768464
aI1095385
asg7
(lp1270
sg18
S'10802'
p1271
sg20
(lp1272
VAttenuation measurement
p1273
aVBase stations
p1274
aVEigenvalues and eigenfunctions
p1275
aVFading
p1276
aVGeometry
p1277
aVInterference
p1278
aVLand mobile radio
p1279
aVPower control
p1280
aVSpread spectrum communication
p1281
aVTesting
p1282
asg32
(lp1283
S'R. W. Nettleton'
p1284
aS'H. Alavi'
p1285
asg35
V25-27 May 1983
p1286
ssI1623332
(dp1287
g2
I8
sg3
VCochannel interference measurement in mobile radio systems
p1288
sg5
(lp1289
sg7
(lp1290
sg18
S'10804'
p1291
sg20
(lp1292
VDelay effects
p1293
aVEnvelope detectors
p1294
aVFading
p1295
aVFluctuations
p1296
aVFrequency
p1297
aVInterchannel interference
p1298
aVLand mobile radio
p1299
aVPhase modulation
p1300
aVRF signals
p1301
aVSampling methods
p1302
asg32
(lp1303
S'S. Kozono'
p1304
aS'M. Sakamoto'
p1305
asg35
V21-23 May 1985
p1306
ssI5935080
(dp1307
g2
I1
sg3
VOptimal power control in Rayleigh-fading heterogeneous networks
p1308
sg5
(lp1309
I5277462
aI5646339
aI1356992
aI5200991
aI5319744
aI975444
aI1545849
aI142770
aI1638541
aI5205907
asg7
(lp1310
VRayleigh channels
p1311
aVfemtocellular radio
p1312
aVminimax techniques
p1313
aVoptimal control
p1314
aVpower control
p1315
aVtelecommunication control
p1316
asg18
S'5888673'
p1317
sg20
(lp1318
VFemtocells
p1319
aVHeuristic algorithms
p1320
aVInterference
p1321
aVRayleigh channels
p1322
aVReceivers
p1323
aVSignal to noise ratio
p1324
asg32
(lp1325
S'C. W. Tan'
p1326
asg35
V10-15 April 2011
p1327
ssI6138858
(dp1328
g2
I1
sg3
VRobust Distributed Power Control in Cognitive Radio Networks
p1329
sg5
(lp1330
I4840529
aI1391031
aI4205091
aI5639025
aI5701695
aI4116705
aI4723340
aI5426526
aI4907474
aI4786456
aI4411175
aI4489760
aI5226978
aI5657272
aI4644054
aI5247037
aI5411806
aI5729854
aI4686852
aI4453898
aI5752426
aI6045302
aI5701693
aI4723360
aI4567684
aI1033689
aI5164911
aI5403537
aI5200975
aI5638160
aI4509766
aI4637916
aI879345
aI1545849
aI975444
aI5935080
aI260747
aI983324
aI4275017
aI1427697
aI1561600
aI6036193
aI414651
aI1664999
asg7
(lp1331
Vcognitive radio
p1332
aVdistributed control
p1333
aVgeometric programming
p1334
aVpower control
p1335
aVrobust control
p1336
aVtelecommunication control
p1337
asg18
S'7755'
p1338
sg20
(lp1339
VIP networks
p1340
aVInterference
p1341
aVResource management
p1342
aVRobustness
p1343
aVScattering
p1344
aVSignal to noise ratio
p1345
aVUncertainty
p1346
asg32
(lp1347
S'A. R. Sharafat'
p1348
aS'S. Parsaeefard'
p1349
asg35
VTue Jan 24 00:00:00 EST 2012
p1350
ssI1621927
(dp1351
g2
I13
sg3
VEffects of multipath transmission on the measured propagation delay of an FM signal
p1352
sg5
(lp1353
I1701213
asg7
(lp1354
sg18
S'25'
p1355
sg20
(lp1356
VDistortion measurement
p1357
aVFrequency modulation
p1358
aVNarrowband
p1359
aVNonlinear distortion
p1360
aVPhase measurement
p1361
aVPropagation delay
p1362
aVRF signals
p1363
aVRadio frequency
p1364
aVSignal processing
p1365
aVTime measurement
p1366
asg32
(lp1367
S'J. S. Engel'
p1368
asg35
VMay 1969
p1369
ssI1670636
(dp1370
g2
I18
sg3
VTransmission Characteristics of a Short-Wave Telephone Circuit
p1371
sg5
(lp1372
I1669877
aI1669839
asg7
(lp1373
sg18
S'5547934'
p1374
sg20
(lp1375
VAudio recording
p1376
aVCircuits
p1377
aVDistortion
p1378
aVFading
p1379
aVFrequency
p1380
aVInterference
p1381
aVPolarization
p1382
aVShape
p1383
aVSpeech
p1384
aVTelephony
p1385
asg32
(lp1386
S'R. K. Potter'
p1387
asg35
VApril 1930
p1388
ssI6771565
(dp1389
g2
I19
sg3
VMathematical analysis of random noise
p1390
sg5
(lp1391
sg7
(lp1392
sg18
S'6731005'
p1393
sg20
(lp1394
sg32
(lp1395
S'S. O. Rice'
p1396
asg35
VJuly 1944
p1397
ssI195438
(dp1398
g2
I7
sg3
VReduction of cochannel interference in cellular systems by intra-zone channel reassignment and adaptive transmitter power control
p1399
sg5
(lp1400
I1095385
aI1623332
aI1622969
asg7
(lp1401
Vcellular radio
p1402
aVinterference (signal)
p1403
asg18
S'757'
p1404
sg20
(lp1405
VAdaptive control
p1406
aVComputer simulation
p1407
aVDegradation
p1408
aVInterchannel interference
p1409
aVInterference channels
p1410
aVMobile communication
p1411
aVPower control
p1412
aVProgrammable control
p1413
aVRadio access networks
p1414
aVRadio transmitters
p1415
asg32
(lp1416
S'M. Sakamoto'
p1417
aS'T. Fujii'
p1418
asg35
V15-17 Jun 1988
p1419
ssI4055555
(dp1420
g2
I17
sg3
VThe Resolution of Signals in White, Gaussian Noise
p1421
sg5
(lp1422
I1057471
aI1057460
aI6373401
asg7
(lp1423
sg18
S'10933'
p1424
sg20
(lp1425
VDecision theory
p1426
aVDetectors
p1427
aVError probability
p1428
aVGaussian noise
p1429
aVMatched filters
p1430
aVPhase detection
p1431
aVRadar detection
p1432
aVShape
p1433
aVSignal resolution
p1434
aVSignal to noise ratio
p1435
asg32
(lp1436
S'C. W. Helstrom'
p1437
asg35
VSept. 1955
p1438
ssI406632
(dp1439
g2
I4
sg3
VIntegrated power control and base station assignment
p1440
sg5
(lp1441
I1623141
aI260766
aI120145
aI577019
aI155977
aI260747
aI414650
asg7
(lp1442
Vcellular radio
p1443
aVcode division multiple access
p1444
aVdistributed algorithms
p1445
aVland mobile radio
p1446
aVminimisation
p1447
aVpower control
p1448
aVradio links
p1449
aVradiofrequency interference
p1450
aVtelecommunication control
p1451
asg18
S'25'
p1452
sg20
(lp1453
VBase stations
p1454
aVDistributed algorithms
p1455
aVInterference
p1456
aVIterative algorithms
p1457
aVMultiaccess communication
p1458
aVPower control
p1459
aVRadio link
p1460
aVRadio transmitters
p1461
aVSignal design
p1462
aVWireless communication
p1463
asg32
(lp1464
S'R. D. Yates'
p1465
aS'Ching-Yao Huang'
p1466
asg35
VAug 1995
p1467
ssI1093907
(dp1468
g2
I12
sg3
VThe Spread Spectrum Concept
p1469
sg5
(lp1470
I1054048
aI1054106
aI1055219
aI1055169
aI1090714
aI1054188
aI1090699
aI1091714
asg7
(lp1471
sg18
S'26'
p1472
sg20
(lp1473
VBand pass filters
p1474
aVBandwidth
p1475
aVBaseband
p1476
aVCryptography
p1477
aVDemodulation
p1478
aVDigital filters
p1479
aVFrequency
p1480
aVMatched filters
p1481
aVSpread spectrum communication
p1482
aVTransmitters
p1483
asg32
(lp1484
S'R. Scholtz'
p1485
asg35
VAug 1977
p1486
ssI188532
(dp1487
g2
I7
sg3
VPerformance of a CDMA radio communications system with feed-back power control and multipath dispersion
p1488
sg5
(lp1489
I289411
aI58433
aI78093
aI1458022
aI1455914
asg7
(lp1490
Vcode division multiple access
p1491
aVcorrelators
p1492
aVdelays
p1493
aVfading
p1494
aVfeedback
p1495
aVpower control
p1496
aVspread spectrum communication
p1497
aVtelecommunications control
p1498
asg18
S'536'
p1499
sg20
(lp1500
VBase stations
p1501
aVCorrelators
p1502
aVDecoding
p1503
aVError correction
p1504
aVError correction codes
p1505
aVInterference
p1506
aVMultiaccess communication
p1507
aVPower control
p1508
aVRadio communication
p1509
aVRayleigh channels
p1510
asg32
(lp1511
S'S. Ariyavisitakul'
p1512
aS'L. F. Chang'
p1513
asg35
V2-5 Dec 1991
p1514
ssI1669839
(dp1515
g2
I19
sg3
VA Suggestion of a Connection between Radio Fading and Small Fluctuations in the Earth's Magnetic Field
p1516
sg5
(lp1517
I6773400
asg7
(lp1518
sg18
S'5547934'
p1519
sg20
(lp1520
VAtmosphere
p1521
aVEarth
p1522
aVElectromagnetic scattering
p1523
aVElectrons
p1524
aVFading
p1525
aVFluctuations
p1526
aVFrequency estimation
p1527
aVInterference
p1528
aVIonization
p1529
aVMagnetic fields
p1530
asg32
(lp1531
S'G. Breit'
p1532
asg35
VAug. 1927
p1533
ssI5165179
(dp1534
g2
I1
sg3
VSCALE: A Low-Complexity Distributed Protocol for Spectrum Balancing in Multiuser DSL Networks
p1535
sg5
(lp1536
I1632106
aI1039864
aI1007390
aI1494677
aI1494679
aI4024693
aI4024099
aI765384
aI414651
aI942511
asg7
(lp1537
Vdigital subscriber lines
p1538
aVfrequency allocation
p1539
aViterative methods
p1540
aVmessage passing
p1541
asg18
S'18'
p1542
sg20
(lp1543
VAging
p1544
aVBandwidth
p1545
aVCopper
p1546
aVCrosstalk
p1547
aVDSL
p1548
aVIterative algorithms
p1549
aVOptical fiber cables
p1550
aVOptical fiber networks
p1551
aVProtocols
p1552
aVRadio spectrum management
p1553
asg32
(lp1554
S'J. Papandriopoulos'
p1555
aS'J. S. Evans'
p1556
asg35
VAug. 2009
p1557
ssI4065414
(dp1558
g2
I17
sg3
VTheoretical Diversity Improvement in Frequency-Shift Keying
p1559
sg5
(lp1560
I1701470
aI1701471
aI1148703
aI4051767
asg7
(lp1561
sg18
S'10933'
p1562
sg20
(lp1563
VCircuit testing
p1564
aVDiversity methods
p1565
aVDiversity reception
p1566
aVElectron tubes
p1567
aVFading
p1568
aVFrequency shift keying
p1569
aVRLC circuits
p1570
aVResonant frequency
p1571
aVSwitches
p1572
aVVoltage
p1573
asg32
(lp1574
S'J. N. Pierce'
p1575
asg35
VMay 1958
p1576
ss.