(dp0
I507520
(dp1
S'refs'
p2
(lp3
I1623141
aI1093019
aI120145
aI97507
aI195438
aI1623323
aI289411
aI188532
aI1096088
asS'layer'
p4
I6
ssI1095553
(dp5
g2
(lp6
I4244313
aI1093915
aI1094293
aI1093901
asg4
I11
ssI4091266
(dp7
g2
(lp8
I1093907
aI1093903
aI1093736
asg4
I11
ssI289411
(dp9
g2
(lp10
I1092554
aI54449
aI6772042
asg4
I4
ssI1146216
(dp11
g2
(lp12
I1455439
aI1456317
aI1095553
asg4
I10
ssI1097606
(dp13
g2
(lp14
sg4
I9
ssI1055169
(dp15
g2
(lp16
I1054048
aI1054106
asg4
I13
ssI1089161
(dp17
g2
(lp18
I4337590
aI1088974
asg4
I14
ssI260747
(dp19
g2
(lp20
I4307345
aI120145
aI155977
aI507520
aI397403
aI276625
aI260747
asg4
I2
ssI1091714
(dp21
g2
(lp22
I1089161
asg4
I13
ssI5241361
(dp23
g2
(lp24
sg4
I18
ssI4307345
(dp25
g2
(lp26
sg4
I5
ssI5425923
(dp27
g2
(lp28
I4623708
aI5165314
aI983324
aI260747
aI120145
aI414650
aI4720238
asg4
I1
ssI1056532
(dp29
g2
(lp30
I1093907
aI1091571
aI1622874
aI6768464
aI1093993
aI1094908
aI1088650
aI6768694
aI6768457
aI6768463
aI1094969
aI6772807
asg4
I11
ssI1622425
(dp31
g2
(lp32
sg4
I11
ssI1054106
(dp33
g2
(lp34
I1054048
asg4
I14
ssI1623323
(dp35
g2
(lp36
I6771936
aI1622511
aI5249517
asg4
I7
ssI40093
(dp37
g2
(lp38
I1095671
aI1095385
aI1622969
aI1097606
aI6772599
aI31127
asg4
I6
ssI1007390
(dp39
g2
(lp40
I260747
aI414651
aI414650
aI683739
aI406632
aI832210
aI965370
aI1056307
aI1055812
aI1056416
aI910609
aI668743
asg4
I2
ssI4065285
(dp41
g2
(lp42
I6773024
aI6772729
aI1057465
asg4
I17
ssI6771361
(dp43
g2
(lp44
sg4
I8
ssI1057571
(dp45
g2
(lp46
I1701316
aI1086506
aI1057450
aI5240941
aI4055555
aI1086622
aI1057460
aI4065414
aI1056827
aI4065360
aI1055140
aI1697831
aI1056805
aI1057386
aI4065535
aI1086414
aI5241361
aI4050808
asg4
I16
ssI7037476
(dp47
g2
(lp48
I5425923
aI5054750
aI5701695
aI6157483
aI5319744
aI5935080
aI975444
aI5165179
aI6138858
asg4
I0
ssI1056805
(dp49
g2
(lp50
I1057460
aI6767541
aI4055555
asg4
I17
ssI1623079
(dp51
g2
(lp52
I1622425
aI1095496
aI1056532
aI6768464
aI1446775
aI1055219
aI6770504
aI1095535
aI1090714
aI1141042
aI6768463
aI1094969
aI1622874
aI1622875
aI1091571
aI1094908
aI6773811
aI6772574
aI4091266
asg4
I10
ssI1086506
(dp53
g2
(lp54
I1056805
aI4065360
aI1056806
aI4065285
asg4
I16
ssI6157483
(dp55
g2
(lp56
I4623708
aI606032
aI5288507
aI5502298
aI4720238
aI5165314
aI4737449
aI5487658
aI4770201
aI276399
aI337636
aI515865
aI683739
aI120145
aI1543924
asg4
I1
ssI6771244
(dp57
g2
(lp58
sg4
I10
ssI5008813
(dp59
g2
(lp60
I5008747
asg4
I16
ssI54449
(dp61
g2
(lp62
I1092554
aI6771244
aI1093912
asg4
I9
ssI1091571
(dp63
g2
(lp64
I1140277
aI1701213
aI1622095
aI1621927
aI1451004
asg4
I12
ssI1057460
(dp65
g2
(lp66
I1697831
aI5241361
aI5241246
aI6771565
asg4
I18
ssI5054750
(dp67
g2
(lp68
I4623708
aI5200991
aI414651
aI260747
aI1019345
aI4295967
asg4
I1
ssI4337590
(dp69
g2
(lp70
I4066507
aI5008792
aI1086506
aI1055125
aI1057444
aI5008813
asg4
I15
ssI155977
(dp71
g2
(lp72
I1623141
aI571458
aI120145
aI40093
asg4
I5
ssI1697831
(dp73
g2
(lp74
I5060996
aI6769394
aI5055024
aI6773356
aI1697556
aI6773024
asg4
I19
ssI1094969
(dp75
g2
(lp76
I6768464
aI6768463
asg4
I12
ssI414650
(dp77
g2
(lp78
I260747
aI289411
aI486617
aI24606
aI74909
aI1623141
aI406632
aI414651
aI120145
asg4
I3
ssI414651
(dp79
g2
(lp80
I195438
aI120145
aI1623141
aI289411
aI232298
aI260766
aI260747
aI414650
aI406632
aI329346
aI368897
aI276399
aI345205
asg4
I2
ssI1669877
(dp81
g2
(lp82
I1669656
asg4
I19
ssI5701695
(dp83
g2
(lp84
I4275017
aI4155367
aI1391031
aI4205091
aI4067860
aI1214071
aI1007390
aI4069138
aI5411806
aI1632106
aI4547456
aI1374963
aI5062050
aI5205907
aI260747
asg4
I1
ssI5319744
(dp85
g2
(lp86
I289411
aI414651
aI1244793
aI1545851
aI1262622
aI4453890
aI4155367
aI1007390
aI1494677
aI1374963
aI4275017
aI4024693
aI1658226
aI1632106
aI4276960
aI1717619
aI1516113
aI1589642
aI1427697
aI4153965
aI4509714
aI1624258
asg4
I1
ssI1054048
(dp87
g2
(lp88
sg4
I13
ssI1090699
(dp89
g2
(lp90
sg4
I13
ssI4275017
(dp91
g2
(lp92
I683739
aI1374963
aI260747
aI1019292
aI975444
aI4146910
aI4025089
aI4024693
aI957304
aI935162
aI1578413
aI1661442
aI414651
asg4
I2
ssI1092554
(dp93
g2
(lp94
I1623079
aI1146083
aI1146216
asg4
I9
ssI4066507
(dp95
g2
(lp96
I4066018
aI4052171
aI4065741
aI1057574
aI1055125
aI1055130
asg4
I16
ssI1088974
(dp97
g2
(lp98
I1057571
asg4
I15
ssI6768463
(dp99
g2
(lp100
sg4
I12
ssI6768464
(dp101
g2
(lp102
sg4
I12
ssI120145
(dp103
g2
(lp104
I4307345
aI1623141
aI1623323
aI195438
aI40093
aI289422
aI40102
asg4
I2
ssI1057444
(dp105
g2
(lp106
I1055122
aI1057390
aI6771565
aI1057415
asg4
I16
ssI975444
(dp107
g2
(lp108
I312802
aI588096
aI406632
aI414651
aI683739
aI515865
aI276398
aI1623141
aI1623141
aI260747
aI406608
aI524195
aI734695
aI120145
aI82819
aI1096088
aI126703
aI142770
aI473953
aI524197
aI155977
aI742887
asg4
I1
ssI6771927
(dp109
g2
(lp110
sg4
I9
ssI1095385
(dp111
g2
(lp112
I6771927
aI6771361
aI1097606
asg4
I7
ssI683739
(dp113
g2
(lp114
I1457973
aI35806
aI1457969
aI1457979
aI1457977
aI1094909
aI1453
aI237882
aI13030
aI212277
aI108264
aI266055
aI1096405
aI1095921
aI21215
aI1095924
aI580232
aI282605
aI1096436
aI56383
aI1096061
aI392962
aI120145
aI155977
aI232298
aI345199
aI1623141
aI276398
aI195438
aI289411
aI1623141
aI345207
aI260766
aI345205
aI260747
aI406632
aI414651
aI476403
aI580424
aI587678
aI383072
aI368926
aI231888
aI329346
aI481835
aI515865
aI500374
aI493310
asg4
I3
ssI1701213
(dp115
g2
(lp116
sg4
I14
ssI1701471
(dp117
g2
(lp118
I1701470
asg4
I18
ssI6771936
(dp119
g2
(lp120
sg4
I8
ssI4065360
(dp121
g2
(lp122
I1670636
aI1670477
aI1696927
aI4051948
aI1701471
aI1095323
aI4056568
aI5299694
aI1701566
aI1057387
aI4055555
aI1055130
aI1057460
aI5241361
aI1055140
aI1057386
aI1701239
aI5241026
aI1056827
aI5241272
aI1686435
asg4
I17
ssI1146083
(dp123
g2
(lp124
I4065633
aI1054048
aI1095533
aI1623079
asg4
I10
ssI1623141
(dp125
g2
(lp126
I6768464
aI1095385
asg4
I4
ssI1623332
(dp127
g2
(lp128
sg4
I8
ssI5935080
(dp129
g2
(lp130
I5277462
aI5646339
aI1356992
aI5200991
aI5319744
aI975444
aI1545849
aI142770
aI1638541
aI5205907
asg4
I1
ssI6138858
(dp131
g2
(lp132
I4840529
aI1391031
aI4205091
aI5639025
aI5701695
aI4116705
aI4723340
aI5426526
aI4907474
aI4786456
aI4411175
aI4489760
aI5226978
aI5657272
aI4644054
aI5247037
aI5411806
aI5729854
aI4686852
aI4453898
aI5752426
aI6045302
aI5701693
aI4723360
aI4567684
aI1033689
aI5164911
aI5403537
aI5200975
aI5638160
aI4509766
aI4637916
aI879345
aI1545849
aI975444
aI5935080
aI260747
aI983324
aI4275017
aI1427697
aI1561600
aI6036193
aI414651
aI1664999
asg4
I1
ssI1621927
(dp133
g2
(lp134
I1701213
asg4
I13
ssI1670636
(dp135
g2
(lp136
I1669877
aI1669839
asg4
I18
ssI6771565
(dp137
g2
(lp138
sg4
I19
ssI195438
(dp139
g2
(lp140
I1095385
aI1623332
aI1622969
asg4
I7
ssI4055555
(dp141
g2
(lp142
I1057471
aI1057460
aI6373401
asg4
I17
ssI406632
(dp143
g2
(lp144
I1623141
aI260766
aI120145
aI577019
aI155977
aI260747
aI414650
asg4
I4
ssI1093907
(dp145
g2
(lp146
I1054048
aI1054106
aI1055219
aI1055169
aI1090714
aI1054188
aI1090699
aI1091714
asg4
I12
ssI188532
(dp147
g2
(lp148
I289411
aI58433
aI78093
aI1458022
aI1455914
asg4
I7
ssI1669839
(dp149
g2
(lp150
I6773400
asg4
I19
ssI5165179
(dp151
g2
(lp152
I1632106
aI1039864
aI1007390
aI1494677
aI1494679
aI4024693
aI4024099
aI765384
aI414651
aI942511
asg4
I1
ssI4065414
(dp153
g2
(lp154
I1701470
aI1701471
aI1148703
aI4051767
asg4
I17
ss.